target datalayout = "e-m:e-p270:32:32-p271:32:32-p272:64:64-i64:64-i128:128-f80:128-n8:16:32:64-S128"
target triple = "x86_64-pc-linux-gnu"

%struct.hwloc_tma = type { ptr, ptr, i32 }

; Function Attrs: nounwind uwtable
define i32 @hwloc_shmem_topology_get_length(ptr noundef %0, ptr noundef %1, i64 noundef %2) #0 {
  %4 = alloca i32, align 4
  %5 = alloca ptr, align 8
  %6 = alloca ptr, align 8
  %7 = alloca i64, align 8
  %8 = alloca ptr, align 8
  %9 = alloca %struct.hwloc_tma, align 8
  %10 = alloca i64, align 8
  %11 = alloca i64, align 8
  %12 = alloca i32, align 4
  %13 = alloca i32, align 4
  store ptr %0, ptr %5, align 8, !tbaa !3
  store ptr %1, ptr %6, align 8, !tbaa !8
  store i64 %2, ptr %7, align 8, !tbaa !10
  call void @llvm.lifetime.start.p0(i64 8, ptr %8) #7
  call void @llvm.lifetime.start.p0(i64 24, ptr %9) #7
  call void @llvm.lifetime.start.p0(i64 8, ptr %10) #7
  store i64 0, ptr %10, align 8, !tbaa !10
  call void @llvm.lifetime.start.p0(i64 8, ptr %11) #7
  %14 = call i64 @sysconf(i32 noundef 30) #7
  store i64 %14, ptr %11, align 8, !tbaa !10
  call void @llvm.lifetime.start.p0(i64 4, ptr %12) #7
  %15 = load i64, ptr %7, align 8, !tbaa !10
  %16 = icmp ne i64 %15, 0
  br i1 %16, label %17, label %19

17:                                               ; preds = %3
  %18 = call ptr @__errno_location() #8
  store i32 22, ptr %18, align 4, !tbaa !12
  store i32 -1, ptr %4, align 4
  store i32 1, ptr %13, align 4
  br label %41

19:                                               ; preds = %3
  %20 = getelementptr inbounds nuw %struct.hwloc_tma, ptr %9, i32 0, i32 0
  store ptr @tma_get_length_malloc, ptr %20, align 8, !tbaa !14
  %21 = getelementptr inbounds nuw %struct.hwloc_tma, ptr %9, i32 0, i32 2
  store i32 0, ptr %21, align 8, !tbaa !16
  %22 = getelementptr inbounds nuw %struct.hwloc_tma, ptr %9, i32 0, i32 1
  store ptr %10, ptr %22, align 8, !tbaa !17
  %23 = load ptr, ptr %5, align 8, !tbaa !3
  %24 = call i32 @hwloc__topology_dup(ptr noundef %8, ptr noundef %23, ptr noundef %9)
  store i32 %24, ptr %12, align 4, !tbaa !12
  %25 = load i32, ptr %12, align 4, !tbaa !12
  %26 = icmp slt i32 %25, 0
  br i1 %26, label %27, label %29

27:                                               ; preds = %19
  %28 = load i32, ptr %12, align 4, !tbaa !12
  store i32 %28, ptr %4, align 4
  store i32 1, ptr %13, align 4
  br label %41

29:                                               ; preds = %19
  %30 = load ptr, ptr %8, align 8, !tbaa !3
  call void @hwloc_topology_destroy(ptr noundef %30)
  %31 = load i64, ptr %10, align 8, !tbaa !10
  %32 = add i64 24, %31
  %33 = load i64, ptr %11, align 8, !tbaa !10
  %34 = add i64 %32, %33
  %35 = sub i64 %34, 1
  %36 = load i64, ptr %11, align 8, !tbaa !10
  %37 = sub i64 %36, 1
  %38 = xor i64 %37, -1
  %39 = and i64 %35, %38
  %40 = load ptr, ptr %6, align 8, !tbaa !8
  store i64 %39, ptr %40, align 8, !tbaa !10
  store i32 0, ptr %4, align 4
  store i32 1, ptr %13, align 4
  br label %41

41:                                               ; preds = %29, %27, %17
  call void @llvm.lifetime.end.p0(i64 4, ptr %12) #7
  call void @llvm.lifetime.end.p0(i64 8, ptr %11) #7
  call void @llvm.lifetime.end.p0(i64 8, ptr %10) #7
  call void @llvm.lifetime.end.p0(i64 24, ptr %9) #7
  call void @llvm.lifetime.end.p0(i64 8, ptr %8) #7
  %42 = load i32, ptr %4, align 4
  ret i32 %42
}