; Function Attrs: nounwind uwtable
define range(i32 -2147483648, 1) i32 @hwloc_shmem_topology_get_length(ptr noundef %0, ptr noundef writeonly captures(none) %1, i64 noundef %2) local_unnamed_addr #0 {
  %4 = alloca ptr, align 8
  %5 = alloca %struct.hwloc_tma, align 8
  %6 = alloca i64, align 8
  call void @llvm.lifetime.start.p0(i64 8, ptr nonnull %4) #13
  call void @llvm.lifetime.start.p0(i64 24, ptr nonnull %5) #13
  call void @llvm.lifetime.start.p0(i64 8, ptr nonnull %6) #13
  store i64 0, ptr %6, align 8, !tbaa !3
  %7 = tail call i64 @sysconf(i32 noundef 30) #13
  %.not = icmp eq i64 %2, 0
  br i1 %.not, label %10, label %8

8:                                                ; preds = %3
  %9 = tail call ptr @__errno_location() #14
  store i32 22, ptr %9, align 4, !tbaa !7
  br label %22

10:                                               ; preds = %3
  store ptr @tma_get_length_malloc, ptr %5, align 8, !tbaa !9
  %11 = getelementptr inbounds nuw i8, ptr %5, i64 16
  store i32 0, ptr %11, align 8, !tbaa !12
  %12 = getelementptr inbounds nuw i8, ptr %5, i64 8
  store ptr %6, ptr %12, align 8, !tbaa !13
  %13 = call i32 @hwloc__topology_dup(ptr noundef nonnull %4, ptr noundef %0, ptr noundef nonnull %5) #13
  %14 = icmp slt i32 %13, 0
  br i1 %14, label %22, label %15

15:                                               ; preds = %10
  %16 = load ptr, ptr %4, align 8, !tbaa !14
  call void @hwloc_topology_destroy(ptr noundef %16) #13
  %17 = load i64, ptr %6, align 8, !tbaa !3
  %18 = add i64 %7, 23
  %19 = add i64 %18, %17
  %20 = sub i64 0, %7
  %21 = and i64 %19, %20
  store i64 %21, ptr %1, align 8, !tbaa !3
  br label %22

22:                                               ; preds = %10, %15, %8
  %.0 = phi i32 [ -1, %8 ], [ 0, %15 ], [ %13, %10 ]
  call void @llvm.lifetime.end.p0(i64 8, ptr nonnull %6) #13
  call void @llvm.lifetime.end.p0(i64 24, ptr nonnull %5) #13
  call void @llvm.lifetime.end.p0(i64 8, ptr nonnull %4) #13
  ret i32 %.0
}